; Function Attrs: mustprogress nofree norecurse nounwind willreturn memory(read, argmem: readwrite, inaccessiblemem: none) uwtable
define hidden noundef zeroext i1 @_ZNSt3__16chrono20__merge_continuationB8ne210000ERNS0_8sys_infoERKS1_(ptr noundef nonnull align 8 captures(none) dereferenceable(56) %0, ptr noundef nonnull readonly align 8 captures(none) dereferenceable(56) %1) local_unnamed_addr #0 {
  %3 = getelementptr inbounds nuw i8, ptr %0, i64 8
  %.sroa.0.0.copyload.i.i = load i64, ptr %3, align 8, !tbaa !4
  %.sroa.0.0.copyload.i2.i = load i64, ptr %1, align 8, !tbaa !4
  %4 = icmp eq i64 %.sroa.0.0.copyload.i.i, %.sroa.0.0.copyload.i2.i
  br i1 %4, label %5, label %_ZNSt3__1eqB8ne210000IcNS_11char_traitsIcEENS_9allocatorIcEEEEbRKNS_12basic_stringIT_T0_T1_EESB_.exit.thread

5:                                                ; preds = %2
  %6 = getelementptr inbounds nuw i8, ptr %0, i64 16
  %7 = getelementptr inbounds nuw i8, ptr %1, i64 16
  %8 = load i64, ptr %6, align 8, !tbaa !8
  %9 = load i64, ptr %7, align 8, !tbaa !8
  %10 = icmp eq i64 %8, %9
  br i1 %10, label %11, label %_ZNSt3__1eqB8ne210000IcNS_11char_traitsIcEENS_9allocatorIcEEEEbRKNS_12basic_stringIT_T0_T1_EESB_.exit.thread

11:                                               ; preds = %5
  %12 = getelementptr inbounds nuw i8, ptr %0, i64 32
  %13 = getelementptr inbounds nuw i8, ptr %1, i64 32
  %14 = load i8, ptr %12, align 8
  %15 = and i8 %14, 1
  %.not.i.i = icmp eq i8 %15, 0
  %16 = getelementptr inbounds nuw i8, ptr %0, i64 40
  %17 = load i64, ptr %16, align 8
  %18 = lshr i8 %14, 1
  %19 = zext nneg i8 %18 to i64
  %20 = select i1 %.not.i.i, i64 %19, i64 %17
  %21 = load i8, ptr %13, align 8
  %22 = and i8 %21, 1
  %.not.i5.i = icmp eq i8 %22, 0
  %23 = getelementptr inbounds nuw i8, ptr %1, i64 40
  %24 = load i64, ptr %23, align 8
  %25 = lshr i8 %21, 1
  %26 = zext nneg i8 %25 to i64
  %27 = select i1 %.not.i5.i, i64 %26, i64 %24
  %28 = icmp eq i64 %20, %27
  br i1 %28, label %_ZNSt3__1eqB8ne210000IcNS_11char_traitsIcEENS_9allocatorIcEEEEbRKNS_12basic_stringIT_T0_T1_EESB_.exit, label %_ZNSt3__1eqB8ne210000IcNS_11char_traitsIcEENS_9allocatorIcEEEEbRKNS_12basic_stringIT_T0_T1_EESB_.exit.thread

_ZNSt3__1eqB8ne210000IcNS_11char_traitsIcEENS_9allocatorIcEEEEbRKNS_12basic_stringIT_T0_T1_EESB_.exit: ; preds = %11
  %29 = getelementptr inbounds nuw i8, ptr %0, i64 48
  %30 = load ptr, ptr %29, align 8
  %31 = getelementptr inbounds nuw i8, ptr %0, i64 33
  %32 = select i1 %.not.i.i, ptr %31, ptr %30
  %33 = getelementptr inbounds nuw i8, ptr %1, i64 48
  %34 = load ptr, ptr %33, align 8
  %35 = getelementptr inbounds nuw i8, ptr %1, i64 33
  %36 = select i1 %.not.i5.i, ptr %35, ptr %34
  %bcmp.i = tail call i32 @bcmp(ptr %32, ptr %36, i64 %20)
  %37 = icmp eq i32 %bcmp.i, 0
  br i1 %37, label %38, label %_ZNSt3__1eqB8ne210000IcNS_11char_traitsIcEENS_9allocatorIcEEEEbRKNS_12basic_stringIT_T0_T1_EESB_.exit.thread

38:                                               ; preds = %_ZNSt3__1eqB8ne210000IcNS_11char_traitsIcEENS_9allocatorIcEEEEbRKNS_12basic_stringIT_T0_T1_EESB_.exit
  %39 = getelementptr inbounds nuw i8, ptr %0, i64 24
  %40 = getelementptr inbounds nuw i8, ptr %1, i64 24
  %41 = load i64, ptr %39, align 8, !tbaa !10
  %42 = load i64, ptr %40, align 8, !tbaa !10
  %43 = icmp eq i64 %41, %42
  br i1 %43, label %44, label %_ZNSt3__1eqB8ne210000IcNS_11char_traitsIcEENS_9allocatorIcEEEEbRKNS_12basic_stringIT_T0_T1_EESB_.exit.thread

44:                                               ; preds = %38
  %45 = getelementptr inbounds nuw i8, ptr %1, i64 8
  %46 = load i64, ptr %45, align 8, !tbaa !4
  store i64 %46, ptr %3, align 8, !tbaa !4
  br label %_ZNSt3__1eqB8ne210000IcNS_11char_traitsIcEENS_9allocatorIcEEEEbRKNS_12basic_stringIT_T0_T1_EESB_.exit.thread

_ZNSt3__1eqB8ne210000IcNS_11char_traitsIcEENS_9allocatorIcEEEEbRKNS_12basic_stringIT_T0_T1_EESB_.exit.thread: ; preds = %11, %5, %_ZNSt3__1eqB8ne210000IcNS_11char_traitsIcEENS_9allocatorIcEEEEbRKNS_12basic_stringIT_T0_T1_EESB_.exit, %38, %2, %44
  %.0 = phi i1 [ true, %44 ], [ false, %2 ], [ false, %38 ], [ false, %_ZNSt3__1eqB8ne210000IcNS_11char_traitsIcEENS_9allocatorIcEEEEbRKNS_12basic_stringIT_T0_T1_EESB_.exit ], [ false, %5 ], [ false, %11 ]
  ret i1 %.0
}